target datalayout = "e-m:e-p270:32:32-p271:32:32-p272:64:64-i64:64-i128:128-f80:128-n8:16:32:64-S128"
target triple = "x86_64-unknown-linux-gnu"

%struct.iovec = type { ptr, i64 }
%struct.QEMUIOVector = type { ptr, i32, %union.anon }
%union.anon = type { %struct.anon }
%struct.anon = type { i32, %struct.iovec }
%struct.anon.0 = type { [12 x i8], i64 }

@.str.1 = private unnamed_addr constant [19 x i8] c"../qemu/util/iov.c\00", align 1
@.str.8 = private unnamed_addr constant [27 x i8] c"offset + len <= qiov->size\00", align 1
@__PRETTY_FUNCTION__.qemu_iovec_slice = private unnamed_addr constant [90 x i8] c"struct iovec *qemu_iovec_slice(QEMUIOVector *, size_t, size_t, size_t *, size_t *, int *)\00", align 1
@.str.9 = private unnamed_addr constant [25 x i8] c"*tail < end_iov->iov_len\00", align 1
@.str.11 = private unnamed_addr constant [20 x i8] c"source->size >= len\00", align 1
@__PRETTY_FUNCTION__.qemu_iovec_init_slice = private unnamed_addr constant [75 x i8] c"void qemu_iovec_init_slice(QEMUIOVector *, QEMUIOVector *, size_t, size_t)\00", align 1
@.str.12 = private unnamed_addr constant [29 x i8] c"source->size - len >= offset\00", align 1

; Function Attrs: nounwind sspstrong uwtable
define internal ptr @iov_skip_offset(ptr noundef %iov, i64 noundef %offset, ptr noundef %remaining_offset) #0 {
entry:
  %iov.addr = alloca ptr, align 8
  %offset.addr = alloca i64, align 8
  %remaining_offset.addr = alloca ptr, align 8
  store ptr %iov, ptr %iov.addr, align 8
  store i64 %offset, ptr %offset.addr, align 8
  store ptr %remaining_offset, ptr %remaining_offset.addr, align 8
  br label %while.cond

while.cond:                                       ; preds = %while.body, %entry
  %0 = load i64, ptr %offset.addr, align 8
  %cmp = icmp ugt i64 %0, 0
  br i1 %cmp, label %land.rhs, label %land.end

land.rhs:                                         ; preds = %while.cond
  %1 = load i64, ptr %offset.addr, align 8
  %2 = load ptr, ptr %iov.addr, align 8
  %iov_len = getelementptr inbounds %struct.iovec, ptr %2, i32 0, i32 1
  %3 = load i64, ptr %iov_len, align 8
  %cmp1 = icmp uge i64 %1, %3
  br label %land.end

land.end:                                         ; preds = %land.rhs, %while.cond
  %4 = phi i1 [ false, %while.cond ], [ %cmp1, %land.rhs ]
  br i1 %4, label %while.body, label %while.end

while.body:                                       ; preds = %land.end
  %5 = load ptr, ptr %iov.addr, align 8
  %iov_len2 = getelementptr inbounds %struct.iovec, ptr %5, i32 0, i32 1
  %6 = load i64, ptr %iov_len2, align 8
  %7 = load i64, ptr %offset.addr, align 8
  %sub = sub i64 %7, %6
  store i64 %sub, ptr %offset.addr, align 8
  %8 = load ptr, ptr %iov.addr, align 8
  %incdec.ptr = getelementptr %struct.iovec, ptr %8, i32 1
  store ptr %incdec.ptr, ptr %iov.addr, align 8
  br label %while.cond, !llvm.loop !18

while.end:                                        ; preds = %land.end
  %9 = load i64, ptr %offset.addr, align 8
  %10 = load ptr, ptr %remaining_offset.addr, align 8
  store i64 %9, ptr %10, align 8
  %11 = load ptr, ptr %iov.addr, align 8
  ret ptr %11
}

; Function Attrs: nounwind sspstrong uwtable
define dso_local void @qemu_iovec_init(ptr noundef %qiov, i32 noundef %alloc_hint) #0 {
entry:
  %qiov.addr = alloca ptr, align 8
  %alloc_hint.addr = alloca i32, align 4
  store ptr %qiov, ptr %qiov.addr, align 8
  store i32 %alloc_hint, ptr %alloc_hint.addr, align 4
  %0 = load i32, ptr %alloc_hint.addr, align 4
  %conv = sext i32 %0 to i64
  %call = call noalias ptr @g_malloc_n(i64 noundef %conv, i64 noundef 16) #10
  %1 = load ptr, ptr %qiov.addr, align 8
  %iov = getelementptr inbounds %struct.QEMUIOVector, ptr %1, i32 0, i32 0
  store ptr %call, ptr %iov, align 8
  %2 = load ptr, ptr %qiov.addr, align 8
  %niov = getelementptr inbounds %struct.QEMUIOVector, ptr %2, i32 0, i32 1
  store i32 0, ptr %niov, align 8
  %3 = load i32, ptr %alloc_hint.addr, align 4
  %4 = load ptr, ptr %qiov.addr, align 8
  %5 = getelementptr inbounds %struct.QEMUIOVector, ptr %4, i32 0, i32 2
  %nalloc = getelementptr inbounds %struct.anon, ptr %5, i32 0, i32 0
  store i32 %3, ptr %nalloc, align 8
  %6 = load ptr, ptr %qiov.addr, align 8
  %7 = getelementptr inbounds %struct.QEMUIOVector, ptr %6, i32 0, i32 2
  %size = getelementptr inbounds %struct.anon.0, ptr %7, i32 0, i32 1
  store i64 0, ptr %size, align 8
  ret void
}

; Function Attrs: nounwind sspstrong uwtable
define internal void @qemu_iovec_init_buf(ptr noundef %qiov, ptr noundef %buf, i64 noundef %len) #0 {
entry:
  %qiov.addr = alloca ptr, align 8
  %buf.addr = alloca ptr, align 8
  %len.addr = alloca i64, align 8
  %.compoundliteral = alloca %struct.QEMUIOVector, align 8
  store ptr %qiov, ptr %qiov.addr, align 8
  store ptr %buf, ptr %buf.addr, align 8
  store i64 %len, ptr %len.addr, align 8
  %0 = load ptr, ptr %qiov.addr, align 8
  %iov = getelementptr inbounds %struct.QEMUIOVector, ptr %.compoundliteral, i32 0, i32 0
  %1 = load ptr, ptr %qiov.addr, align 8
  %2 = getelementptr inbounds %struct.QEMUIOVector, ptr %1, i32 0, i32 2
  %local_iov = getelementptr inbounds %struct.anon, ptr %2, i32 0, i32 1
  store ptr %local_iov, ptr %iov, align 8
  %niov = getelementptr inbounds %struct.QEMUIOVector, ptr %.compoundliteral, i32 0, i32 1
  store i32 1, ptr %niov, align 8
  %3 = getelementptr inbounds %struct.QEMUIOVector, ptr %.compoundliteral, i32 0, i32 2
  %nalloc = getelementptr inbounds %struct.anon, ptr %3, i32 0, i32 0
  store i32 -1, ptr %nalloc, align 8
  %local_iov1 = getelementptr inbounds %struct.anon, ptr %3, i32 0, i32 1
  %iov_base = getelementptr inbounds %struct.iovec, ptr %local_iov1, i32 0, i32 0
  %4 = load ptr, ptr %buf.addr, align 8
  store ptr %4, ptr %iov_base, align 8
  %iov_len = getelementptr inbounds %struct.iovec, ptr %local_iov1, i32 0, i32 1
  %5 = load i64, ptr %len.addr, align 8
  store i64 %5, ptr %iov_len, align 8
  call void @llvm.memcpy.p0.p0.i64(ptr align 8 %0, ptr align 8 %.compoundliteral, i64 40, i1 false)
  ret void
}

; Function Attrs: nounwind sspstrong uwtable
define dso_local ptr @qemu_iovec_slice(ptr noundef %qiov, i64 noundef %offset, i64 noundef %len, ptr noundef %head, ptr noundef %tail, ptr noundef %niov) #0 {
entry:
  %qiov.addr = alloca ptr, align 8
  %offset.addr = alloca i64, align 8
  %len.addr = alloca i64, align 8
  %head.addr = alloca ptr, align 8
  %tail.addr = alloca ptr, align 8
  %niov.addr = alloca ptr, align 8
  %iov = alloca ptr, align 8
  %end_iov = alloca ptr, align 8
  store ptr %qiov, ptr %qiov.addr, align 8
  store i64 %offset, ptr %offset.addr, align 8
  store i64 %len, ptr %len.addr, align 8
  store ptr %head, ptr %head.addr, align 8
  store ptr %tail, ptr %tail.addr, align 8
  store ptr %niov, ptr %niov.addr, align 8
  %0 = load i64, ptr %offset.addr, align 8
  %1 = load i64, ptr %len.addr, align 8
  %add = add i64 %0, %1
  %2 = load ptr, ptr %qiov.addr, align 8
  %3 = getelementptr inbounds %struct.QEMUIOVector, ptr %2, i32 0, i32 2
  %size = getelementptr inbounds %struct.anon.0, ptr %3, i32 0, i32 1
  %4 = load i64, ptr %size, align 8
  %cmp = icmp ule i64 %add, %4
  br i1 %cmp, label %if.then, label %if.else

if.then:                                          ; preds = %entry
  br label %if.end

if.else:                                          ; preds = %entry
  call void @__assert_fail(ptr noundef @.str.8, ptr noundef @.str.1, i32 noundef 393, ptr noundef @__PRETTY_FUNCTION__.qemu_iovec_slice) #9
  unreachable

if.end:                                           ; preds = %if.then
  %5 = load ptr, ptr %qiov.addr, align 8
  %iov1 = getelementptr inbounds %struct.QEMUIOVector, ptr %5, i32 0, i32 0
  %6 = load ptr, ptr %iov1, align 8
  %7 = load i64, ptr %offset.addr, align 8
  %8 = load ptr, ptr %head.addr, align 8
  %call = call ptr @iov_skip_offset(ptr noundef %6, i64 noundef %7, ptr noundef %8)
  store ptr %call, ptr %iov, align 8
  %9 = load ptr, ptr %iov, align 8
  %10 = load ptr, ptr %head.addr, align 8
  %11 = load i64, ptr %10, align 8
  %12 = load i64, ptr %len.addr, align 8
  %add2 = add i64 %11, %12
  %13 = load ptr, ptr %tail.addr, align 8
  %call3 = call ptr @iov_skip_offset(ptr noundef %9, i64 noundef %add2, ptr noundef %13)
  store ptr %call3, ptr %end_iov, align 8
  %14 = load ptr, ptr %tail.addr, align 8
  %15 = load i64, ptr %14, align 8
  %cmp4 = icmp ugt i64 %15, 0
  br i1 %cmp4, label %if.then5, label %if.end11

if.then5:                                         ; preds = %if.end
  %16 = load ptr, ptr %tail.addr, align 8
  %17 = load i64, ptr %16, align 8
  %18 = load ptr, ptr %end_iov, align 8
  %iov_len = getelementptr inbounds %struct.iovec, ptr %18, i32 0, i32 1
  %19 = load i64, ptr %iov_len, align 8
  %cmp6 = icmp ult i64 %17, %19
  br i1 %cmp6, label %if.then7, label %if.else8

if.then7:                                         ; preds = %if.then5
  br label %if.end9

if.else8:                                         ; preds = %if.then5
  call void @__assert_fail(ptr noundef @.str.9, ptr noundef @.str.1, i32 noundef 399, ptr noundef @__PRETTY_FUNCTION__.qemu_iovec_slice) #9
  unreachable

if.end9:                                          ; preds = %if.then7
  %20 = load ptr, ptr %end_iov, align 8
  %iov_len10 = getelementptr inbounds %struct.iovec, ptr %20, i32 0, i32 1
  %21 = load i64, ptr %iov_len10, align 8
  %22 = load ptr, ptr %tail.addr, align 8
  %23 = load i64, ptr %22, align 8
  %sub = sub i64 %21, %23
  %24 = load ptr, ptr %tail.addr, align 8
  store i64 %sub, ptr %24, align 8
  %25 = load ptr, ptr %end_iov, align 8
  %incdec.ptr = getelementptr %struct.iovec, ptr %25, i32 1
  store ptr %incdec.ptr, ptr %end_iov, align 8
  br label %if.end11

if.end11:                                         ; preds = %if.end9, %if.end
  %26 = load ptr, ptr %end_iov, align 8
  %27 = load ptr, ptr %iov, align 8
  %sub.ptr.lhs.cast = ptrtoint ptr %26 to i64
  %sub.ptr.rhs.cast = ptrtoint ptr %27 to i64
  %sub.ptr.sub = sub i64 %sub.ptr.lhs.cast, %sub.ptr.rhs.cast
  %sub.ptr.div = sdiv exact i64 %sub.ptr.sub, 16
  %conv = trunc i64 %sub.ptr.div to i32
  %28 = load ptr, ptr %niov.addr, align 8
  store i32 %conv, ptr %28, align 4
  %29 = load ptr, ptr %iov, align 8
  ret ptr %29
}

; Function Attrs: nounwind sspstrong uwtable
define dso_local void @qemu_iovec_init_slice(ptr noundef %qiov, ptr noundef %source, i64 noundef %offset, i64 noundef %len) #0 {
entry:
  %qiov.addr = alloca ptr, align 8
  %source.addr = alloca ptr, align 8
  %offset.addr = alloca i64, align 8
  %len.addr = alloca i64, align 8
  %slice_iov = alloca ptr, align 8
  %slice_niov = alloca i32, align 4
  %slice_head = alloca i64, align 8
  %slice_tail = alloca i64, align 8
  store ptr %qiov, ptr %qiov.addr, align 8
  store ptr %source, ptr %source.addr, align 8
  store i64 %offset, ptr %offset.addr, align 8
  store i64 %len, ptr %len.addr, align 8
  %0 = load ptr, ptr %source.addr, align 8
  %1 = getelementptr inbounds %struct.QEMUIOVector, ptr %0, i32 0, i32 2
  %size = getelementptr inbounds %struct.anon.0, ptr %1, i32 0, i32 1
  %2 = load i64, ptr %size, align 8
  %3 = load i64, ptr %len.addr, align 8
  %cmp = icmp uge i64 %2, %3
  br i1 %cmp, label %if.then, label %if.else

if.then:                                          ; preds = %entry
  br label %if.end

if.else:                                          ; preds = %entry
  call void @__assert_fail(ptr noundef @.str.11, ptr noundef @.str.1, i32 noundef 454, ptr noundef @__PRETTY_FUNCTION__.qemu_iovec_init_slice) #9
  unreachable

if.end:                                           ; preds = %if.then
  %4 = load ptr, ptr %source.addr, align 8
  %5 = getelementptr inbounds %struct.QEMUIOVector, ptr %4, i32 0, i32 2
  %size1 = getelementptr inbounds %struct.anon.0, ptr %5, i32 0, i32 1
  %6 = load i64, ptr %size1, align 8
  %7 = load i64, ptr %len.addr, align 8
  %sub = sub i64 %6, %7
  %8 = load i64, ptr %offset.addr, align 8
  %cmp2 = icmp uge i64 %sub, %8
  br i1 %cmp2, label %if.then3, label %if.else4

if.then3:                                         ; preds = %if.end
  br label %if.end5

if.else4:                                         ; preds = %if.end
  call void @__assert_fail(ptr noundef @.str.12, ptr noundef @.str.1, i32 noundef 455, ptr noundef @__PRETTY_FUNCTION__.qemu_iovec_init_slice) #9
  unreachable

if.end5:                                          ; preds = %if.then3
  %9 = load ptr, ptr %source.addr, align 8
  %10 = load i64, ptr %offset.addr, align 8
  %11 = load i64, ptr %len.addr, align 8
  %call = call ptr @qemu_iovec_slice(ptr noundef %9, i64 noundef %10, i64 noundef %11, ptr noundef %slice_head, ptr noundef %slice_tail, ptr noundef %slice_niov)
  store ptr %call, ptr %slice_iov, align 8
  %12 = load i32, ptr %slice_niov, align 4
  %cmp6 = icmp eq i32 %12, 1
  br i1 %cmp6, label %if.then7, label %if.else8

if.then7:                                         ; preds = %if.end5
  %13 = load ptr, ptr %qiov.addr, align 8
  %14 = load ptr, ptr %slice_iov, align 8
  %arrayidx = getelementptr %struct.iovec, ptr %14, i64 0
  %iov_base = getelementptr inbounds %struct.iovec, ptr %arrayidx, i32 0, i32 0
  %15 = load ptr, ptr %iov_base, align 8
  %16 = load i64, ptr %slice_head, align 8
  %add.ptr = getelementptr i8, ptr %15, i64 %16
  %17 = load i64, ptr %len.addr, align 8
  call void @qemu_iovec_init_buf(ptr noundef %13, ptr noundef %add.ptr, i64 noundef %17)
  br label %if.end10

if.else8:                                         ; preds = %if.end5
  %18 = load ptr, ptr %qiov.addr, align 8
  %19 = load i32, ptr %slice_niov, align 4
  call void @qemu_iovec_init(ptr noundef %18, i32 noundef %19)
  %20 = load ptr, ptr %qiov.addr, align 8
  %21 = load ptr, ptr %slice_iov, align 8
  %22 = load i32, ptr %slice_niov, align 4
  %23 = load i64, ptr %slice_head, align 8
  %24 = load i64, ptr %len.addr, align 8
  %call9 = call i64 @qemu_iovec_concat_iov(ptr noundef %20, ptr noundef %21, i32 noundef %22, i64 noundef %23, i64 noundef %24)
  br label %if.end10

if.end10:                                         ; preds = %if.else8, %if.then7
  ret void
}