; Function Attrs: nounwind sspstrong uwtable
define dso_local void @qemu_iovec_init_slice(ptr noundef %qiov, ptr noundef readonly captures(none) %source, i64 noundef %offset, i64 noundef %len) local_unnamed_addr #0 {
entry:
  %size = getelementptr inbounds nuw i8, ptr %source, i64 32
  %0 = load i64, ptr %size, align 8
  %cmp.not = icmp ult i64 %0, %len
  br i1 %cmp.not, label %if.else, label %if.end

if.else:                                          ; preds = %entry
  tail call void @__assert_fail(ptr noundef nonnull @.str.11, ptr noundef nonnull @.str.1, i32 noundef 454, ptr noundef nonnull @__PRETTY_FUNCTION__.qemu_iovec_init_slice) #17
  unreachable

if.end:                                           ; preds = %entry
  %sub = sub nuw i64 %0, %len
  %cmp2.not = icmp ult i64 %sub, %offset
  br i1 %cmp2.not, label %if.else4, label %if.end5

if.else4:                                         ; preds = %if.end
  tail call void @__assert_fail(ptr noundef nonnull @.str.12, ptr noundef nonnull @.str.1, i32 noundef 455, ptr noundef nonnull @__PRETTY_FUNCTION__.qemu_iovec_init_slice) #17
  unreachable

if.end5:                                          ; preds = %if.end
  %add.i = add i64 %len, %offset
  %cmp.not.i = icmp ugt i64 %add.i, %0
  br i1 %cmp.not.i, label %if.else.i, label %if.end.i

if.else.i:                                        ; preds = %if.end5
  tail call void @__assert_fail(ptr noundef nonnull @.str.8, ptr noundef nonnull @.str.1, i32 noundef 393, ptr noundef nonnull @__PRETTY_FUNCTION__.qemu_iovec_slice) #17
  unreachable

if.end.i:                                         ; preds = %if.end5
  %1 = load ptr, ptr %source, align 8
  %cmp.not7.i.i = icmp eq i64 %offset, 0
  br i1 %cmp.not7.i.i, label %iov_skip_offset.exit.i, label %land.rhs.i.i

land.rhs.i.i:                                     ; preds = %if.end.i, %while.body.i.i
  %iov.addr.09.i.i = phi ptr [ %incdec.ptr.i.i, %while.body.i.i ], [ %1, %if.end.i ]
  %offset.addr.08.i.i = phi i64 [ %sub.i.i, %while.body.i.i ], [ %offset, %if.end.i ]
  %iov_len.i.i = getelementptr inbounds nuw i8, ptr %iov.addr.09.i.i, i64 8
  %2 = load i64, ptr %iov_len.i.i, align 8
  %cmp1.not.i.i = icmp ult i64 %offset.addr.08.i.i, %2
  br i1 %cmp1.not.i.i, label %iov_skip_offset.exit.i, label %while.body.i.i

while.body.i.i:                                   ; preds = %land.rhs.i.i
  %sub.i.i = sub nuw i64 %offset.addr.08.i.i, %2
  %incdec.ptr.i.i = getelementptr i8, ptr %iov.addr.09.i.i, i64 16
  %cmp.not.i.i = icmp eq i64 %sub.i.i, 0
  br i1 %cmp.not.i.i, label %iov_skip_offset.exit.i, label %land.rhs.i.i, !llvm.loop !18

iov_skip_offset.exit.i:                           ; preds = %while.body.i.i, %land.rhs.i.i, %if.end.i
  %offset.addr.0.lcssa.i.i = phi i64 [ 0, %if.end.i ], [ 0, %while.body.i.i ], [ %offset.addr.08.i.i, %land.rhs.i.i ]
  %iov.addr.0.lcssa.i.i = phi ptr [ %1, %if.end.i ], [ %incdec.ptr.i.i, %while.body.i.i ], [ %iov.addr.09.i.i, %land.rhs.i.i ]
  %add2.i = add i64 %offset.addr.0.lcssa.i.i, %len
  %cmp.not7.i15.i = icmp eq i64 %add2.i, 0
  br i1 %cmp.not7.i15.i, label %qemu_iovec_slice.exit, label %land.rhs.i16.i

land.rhs.i16.i:                                   ; preds = %iov_skip_offset.exit.i, %while.body.i21.i
  %iov.addr.09.i17.i = phi ptr [ %incdec.ptr.i23.i, %while.body.i21.i ], [ %iov.addr.0.lcssa.i.i, %iov_skip_offset.exit.i ]
  %offset.addr.08.i18.i = phi i64 [ %sub.i22.i, %while.body.i21.i ], [ %add2.i, %iov_skip_offset.exit.i ]
  %iov_len.i19.i = getelementptr inbounds nuw i8, ptr %iov.addr.09.i17.i, i64 8
  %3 = load i64, ptr %iov_len.i19.i, align 8
  %cmp1.not.i20.i = icmp ult i64 %offset.addr.08.i18.i, %3
  br i1 %cmp1.not.i20.i, label %if.end9.i, label %while.body.i21.i

while.body.i21.i:                                 ; preds = %land.rhs.i16.i
  %sub.i22.i = sub nuw i64 %offset.addr.08.i18.i, %3
  %incdec.ptr.i23.i = getelementptr i8, ptr %iov.addr.09.i17.i, i64 16
  %cmp.not.i24.i = icmp eq i64 %sub.i22.i, 0
  br i1 %cmp.not.i24.i, label %qemu_iovec_slice.exit, label %land.rhs.i16.i, !llvm.loop !18

if.end9.i:                                        ; preds = %land.rhs.i16.i
  %incdec.ptr.i = getelementptr i8, ptr %iov.addr.09.i17.i, i64 16
  br label %qemu_iovec_slice.exit

qemu_iovec_slice.exit:                            ; preds = %while.body.i21.i, %iov_skip_offset.exit.i, %if.end9.i
  %end_iov.0.i = phi ptr [ %incdec.ptr.i, %if.end9.i ], [ %iov.addr.0.lcssa.i.i, %iov_skip_offset.exit.i ], [ %incdec.ptr.i23.i, %while.body.i21.i ]
  %sub.ptr.lhs.cast.i = ptrtoint ptr %end_iov.0.i to i64
  %sub.ptr.rhs.cast.i = ptrtoint ptr %iov.addr.0.lcssa.i.i to i64
  %sub.ptr.sub.i = sub i64 %sub.ptr.lhs.cast.i, %sub.ptr.rhs.cast.i
  %sub.ptr.div.i = lshr exact i64 %sub.ptr.sub.i, 4
  %conv.i = trunc i64 %sub.ptr.div.i to i32
  %cmp6 = icmp eq i32 %conv.i, 1
  br i1 %cmp6, label %if.then7, label %if.else8

if.then7:                                         ; preds = %qemu_iovec_slice.exit
  %4 = load ptr, ptr %iov.addr.0.lcssa.i.i, align 8
  %add.ptr = getelementptr i8, ptr %4, i64 %offset.addr.0.lcssa.i.i
  %5 = getelementptr inbounds nuw i8, ptr %qiov, i64 16
  %local_iov.i = getelementptr inbounds nuw i8, ptr %qiov, i64 24
  store ptr %local_iov.i, ptr %qiov, align 8
  %.compoundliteral.sroa.2.0..sroa_idx.i = getelementptr inbounds nuw i8, ptr %qiov, i64 8
  store i32 1, ptr %.compoundliteral.sroa.2.0..sroa_idx.i, align 8
  store i32 -1, ptr %5, align 8
  store ptr %add.ptr, ptr %local_iov.i, align 8
  %.compoundliteral.sroa.5.0..sroa_idx.i = getelementptr inbounds nuw i8, ptr %qiov, i64 32
  store i64 %len, ptr %.compoundliteral.sroa.5.0..sroa_idx.i, align 8
  br label %if.end10

if.else8:                                         ; preds = %qemu_iovec_slice.exit
  %sext = shl i64 %sub.ptr.sub.i, 28
  %conv.i12 = ashr i64 %sext, 32
  %call.i = tail call noalias ptr @g_malloc_n(i64 noundef %conv.i12, i64 noundef 16) #18
  store ptr %call.i, ptr %qiov, align 8
  %niov.i = getelementptr inbounds nuw i8, ptr %qiov, i64 8
  store i32 0, ptr %niov.i, align 8
  %6 = getelementptr inbounds nuw i8, ptr %qiov, i64 16
  store i32 %conv.i, ptr %6, align 8
  %size.i13 = getelementptr inbounds nuw i8, ptr %qiov, i64 32
  store i64 0, ptr %size.i13, align 8
  %call9 = tail call i64 @qemu_iovec_concat_iov(ptr noundef nonnull %qiov, ptr noundef %iov.addr.0.lcssa.i.i, i32 noundef %conv.i, i64 noundef %offset.addr.0.lcssa.i.i, i64 noundef %len)
  br label %if.end10

if.end10:                                         ; preds = %if.else8, %if.then7
  ret void
}